target datalayout = "e-m:e-p270:32:32-p271:32:32-p272:64:64-i64:64-i128:128-f80:128-n8:16:32:64-S128"
target triple = "x86_64-pc-linux-gnu"

%"class.std::__cxx11::basic_string" = type { %"struct.std::__cxx11::basic_string<char>::_Alloc_hider", i64, %union.anon }
%"struct.std::__cxx11::basic_string<char>::_Alloc_hider" = type { ptr }
%union.anon = type { i64, [8 x i8] }
%"class.std::allocator" = type { i8 }
%"struct.cv::MatSize" = type { ptr }
%"struct.cv::MatStep" = type { ptr, [2 x i64] }
%"class.cv::UMat" = type { i32, i32, i32, i32, ptr, i32, ptr, i64, %"struct.cv::MatSize", %"struct.cv::MatStep" }

@.str.1 = private unnamed_addr constant [119 x i8] c"generated/home/dtcxzyw/WorkSpace/Projects/compilers/llvm-opt-benchmark/bench/opencv/opencv/modules/core/src/opengl.cpp\00", align 1
@.str.7 = private unnamed_addr constant [40 x i8] c"OpenCV was build without OpenGL support\00", align 1
@__func__._ZN2cv3ogl11mapGLBufferERKNS0_6BufferENS_10AccessFlagE = private unnamed_addr constant [12 x i8] c"mapGLBuffer\00", align 1

; Function Attrs: mustprogress uwtable
define void @_ZN2cv3ogl11mapGLBufferERKNS0_6BufferENS_10AccessFlagE(ptr dead_on_unwind noalias writable sret(%"class.cv::UMat") align 8 %0, ptr noundef nonnull align 8 dereferenceable(28) %1, i32 noundef %2) #0 personality ptr @__gxx_personality_v0 {
  %4 = alloca ptr, align 8
  %5 = alloca ptr, align 8
  %6 = alloca i32, align 4
  %7 = alloca %"class.std::__cxx11::basic_string", align 8
  %8 = alloca %"class.std::allocator", align 1
  %9 = alloca ptr, align 8
  %10 = alloca i32, align 4
  store ptr %0, ptr %4, align 8
  store ptr %1, ptr %5, align 8
  store i32 %2, ptr %6, align 4
  call void @_ZNSaIcEC1Ev(ptr noundef nonnull align 1 dereferenceable(1) %8) #9
  invoke void @_ZNSt7__cxx1112basic_stringIcSt11char_traitsIcESaIcEEC1EPKcRKS3_(ptr noundef nonnull align 8 dereferenceable(32) %7, ptr noundef @.str.7, ptr noundef nonnull align 1 dereferenceable(1) %8)
          to label %11 unwind label %13

11:                                               ; preds = %3
  invoke void @_ZN2cv5errorEiRKNSt7__cxx1112basic_stringIcSt11char_traitsIcESaIcEEEPKcS9_i(i32 noundef -6, ptr noundef nonnull align 8 dereferenceable(32) %7, ptr noundef @__func__._ZN2cv3ogl11mapGLBufferERKNS0_6BufferENS_10AccessFlagE, ptr noundef @.str.1, i32 noundef 1857) #8
          to label %12 unwind label %17

12:                                               ; preds = %11
  unreachable

13:                                               ; preds = %3
  %14 = landingpad { ptr, i32 }
          cleanup
  %15 = extractvalue { ptr, i32 } %14, 0
  store ptr %15, ptr %9, align 8
  %16 = extractvalue { ptr, i32 } %14, 1
  store i32 %16, ptr %10, align 4
  br label %21

17:                                               ; preds = %11
  %18 = landingpad { ptr, i32 }
          cleanup
  %19 = extractvalue { ptr, i32 } %18, 0
  store ptr %19, ptr %9, align 8
  %20 = extractvalue { ptr, i32 } %18, 1
  store i32 %20, ptr %10, align 4
  call void @_ZNSt7__cxx1112basic_stringIcSt11char_traitsIcESaIcEED1Ev(ptr noundef nonnull align 8 dereferenceable(32) %7) #9
  br label %21

21:                                               ; preds = %17, %13
  call void @_ZNSaIcED1Ev(ptr noundef nonnull align 1 dereferenceable(1) %8) #9
  br label %22

22:                                               ; preds = %21
  %23 = load ptr, ptr %9, align 8
  %24 = load i32, ptr %10, align 4
  %25 = insertvalue { ptr, i32 } poison, ptr %23, 0
  %26 = insertvalue { ptr, i32 } %25, i32 %24, 1
  resume { ptr, i32 } %26
}